; Function Attrs: inlinehint mustprogress nounwind uwtable
define internal fastcc void @_ZN2cv12_GLOBAL__N_18GSafePtrI7_GstPadED2Ev(ptr noundef nonnull align 8 captures(none) dereferenceable(8) %0) unnamed_addr #5 align 2 personality ptr @__gxx_personality_v0 {
  %2 = load ptr, ptr %0, align 8, !tbaa !478
  %.not.i = icmp eq ptr %2, null
  br i1 %.not.i, label %_ZN2cv12_GLOBAL__N_18GSafePtrI7_GstPadE7releaseEv.exit, label %3

3:                                                ; preds = %1
  %4 = invoke ptr @g_type_check_instance_cast(ptr noundef nonnull %2, i64 noundef 80)
          to label %.noexc.i unwind label %5

.noexc.i:                                         ; preds = %3
  invoke void @gst_object_unref(ptr noundef %4)
          to label %_ZN2cv12_GLOBAL__N_116GSafePtr_releaseI7_GstPadEEvPPT_.exit.i unwind label %5

_ZN2cv12_GLOBAL__N_116GSafePtr_releaseI7_GstPadEEvPPT_.exit.i: ; preds = %.noexc.i
  store ptr null, ptr %0, align 8, !tbaa !488
  br label %_ZN2cv12_GLOBAL__N_18GSafePtrI7_GstPadE7releaseEv.exit

5:                                                ; preds = %.noexc.i, %3
  %6 = landingpad { ptr, i32 }
          catch ptr null
  %7 = extractvalue { ptr, i32 } %6, 0
  tail call void @__clang_call_terminate(ptr %7) #32
  unreachable

_ZN2cv12_GLOBAL__N_18GSafePtrI7_GstPadE7releaseEv.exit: ; preds = %1, %_ZN2cv12_GLOBAL__N_116GSafePtr_releaseI7_GstPadEEvPPT_.exit.i
  ret void
}